(dp0
S'CpG_islands_hg38'
p1
(I31144
I24200434
F0.00783624
tp2
sS'tRNA_hg38'
p3
(I631
I46790
F1.515e-05
tp4
sS'KnownGene_Gencode29_hg38_introns'
p5
(I172751
I1580157646
F0.51166437
tp6
sS'Enhancers_hg19_to_hg38'
p7
(I226711
I304136048
F0.09848105
tp8
sS'miRNA_hg38'
p9
(I1859
I152866
F4.95e-05
tp10
sS'annotationDirectory'
p11
S'MSPC_FunctionalEnrichment/annotations/hg38_annotations/merged'
p12
sS'unitSize'
p13
S'bp'
p14
sS'KnownGene_Gencode29_hg38_exons'
p15
(I313276
I134968333
F0.04370354
tp16
sS'snoRNA_hg38'
p17
(I400
I43060
F1.394e-05
tp18
sS'fetchDnaSequence'
p19
I00
sS'genomeSize'
p20
I3088269832
sS'KnownGene_Gencode29_hg38_RefSeq_coding'
p21
(I17271
I1129947427
F0.36588365
tp22
sS'genome'
p23
S'hg38'
p24
sS'annotationFormat'
p25
(S'N'
p26
S'featureSize'
p27
S'featureSize/genomeSize'
p28
tp29
sS'KnownGene_Gencode29_hg38_nonRefSeq'
p30
(I34996
I1404152475
F0.45467286
tp31
sS'KnownGene_Gencode29_hg38_promoters'
p32
(I67635
I423844937
F0.13724349
tp33
sS'DNase_clusters_hg38'
p34
(I2107358
I458295457
F0.14839877
tp35
sS'KnownGene_Gencode29_hg38_RefSeq_noncoding'
p36
(I8236
I255298752
F0.08266724
tp37
s.