(dp0
S'KnownTranscripts_hg19_nonCoding'
p1
(I3865
I118269757
F0.03820481
tp2
sS'snoRNA_hg19'
p3
(I400
I43060
F1.391e-05
tp4
sS'KnownTranscripts_hg19_promoters'
p5
(I26470
I144069431
F0.0465389
tp6
sS'CpG_islands_hg19'
p7
(I27718
I21152388
F0.00683288
tp8
sS'annotationDirectory'
p9
S'MSPC_FunctionalEnrichment/annotations/hg19_annotations/merged'
p10
sS'KnownGenes_hg19_introns'
p11
(I173586
I1277636564
F0.41271631
tp12
sS'unitSize'
p13
S'bp'
p14
sS'miRNA_hg19'
p15
(I923
I79586
F2.571e-05
tp16
sS'fetchDnaSequence'
p17
I00
sS'KnownTranscripts_hg19_coding'
p18
(I16849
I1103567256
F0.35648652
tp19
sS'genomeSize'
p20
I3095677412
sS'genome'
p21
S'hg19'
p22
sS'annotationFormat'
p23
(S'N'
p24
S'featureSize'
p25
S'featureSize/genomeSize'
p26
tp27
sS'KnownTranscripts_hg19_nonRefSeq'
p28
(I13057
I473205325
F0.15286002
tp29
sS'KnownGenes_hg19_exons'
p30
(I242616
I85114206
F0.02749453
tp31
sS'Enhancers_hg19'
p32
(I226728
I304156853
F0.09825211
tp33
sS'tRNA_hg19'
p34
(I604
I44850
F1.449e-05
tp35
s.